(lp0
(lp1
I300
aI303
aI503
aI1128
aI380
aI1871
aI27
aI67
aI1125
aI226
aI1416
aI52
aI1660
aI563
aI1127
aI681
aI126
aI1122
aI1746
aI1855
aI287
aI633
aI1989
aI1385
aI1553
aI138
aI1423
aI263
aI1797
aI1602
aI1753
aI1641
aI1893
aI1471
aI1182
aI798
aI455
aI757
aI356
aI1936
aI1304
aI928
aI1778
aI1678
aI1681
aI832
aI486
aI46
aI36
aI1618
aI1676
aI935
aI1964
aI1695
aI1605
aI433
aI539
aI1845
aI1795
aI1668
aI435
aI1948
aI1779
aI1736
aa(lp2
I1985
aI434
aI1719
aI379
aI1587
aI1217
aI1465
aI351
aI1768
aI364
aI440
aI617
aI995
aI1321
aI1767
aI42
aI1023
aI1450
aI950
aI556
aI429
aI1045
aI248
aI40
aI467
aI1772
aI529
aI1641
aI1988
aI253
aI1172
aI1220
aI1938
aI1925
aI1616
aI781
aI1904
aI1492
aI554
aI282
aI1951
aI165
aI200
aI1828
aI92
aI722
aI1454
aI453
aI685
aI1779
aI1528
aI1770
aI606
aI658
aI1432
aI373
aI1275
aI477
aI236
aI1888
aI1378
aI1397
aI894
aI1282
aa(lp3
I988
aI1435
aI1969
aI14
aI114
aI1981
aI885
aI1741
aI1485
aI1087
aI1348
aI1441
aI1944
aI820
aI1367
aI1088
aI1188
aI1826
aI716
aI1925
aI1047
aI1660
aI1596
aI1158
aI565
aI781
aI896
aI1502
aI1752
aI889
aI1131
aI1624
aI1242
aI1380
aI1848
aI1448
aI1490
aI1062
aI6
aI960
aI536
aI669
aI1124
aI494
aI86
aI269
aI1319
aI1565
aI881
aI409
aI533
aI910
aI562
aI1241
aI491
aI1745
aI1232
aI231
aI1735
aI1829
aI1783
aI1026
aI1736
aI184
aa(lp4
I478
aI1641
aI941
aI836
aI219
aI264
aI971
aI1369
aI631
aI60
aI359
aI1982
aI1132
aI276
aI439
aI652
aI512
aI1309
aI1690
aI1770
aI296
aI1736
aI1409
aI220
aI1055
aI861
aI809
aI554
aI1431
aI67
aI1140
aI308
aI820
aI1225
aI1549
aI1407
aI612
aI602
aI1139
aI1412
aI1914
aI1196
aI362
aI1547
aI1130
aI1037
aI51
aI1146
aI1272
aI470
aI1253
aI1553
aI726
aI160
aI1784
aI759
aI1988
aI1903
aI574
aI641
aI1434
aI46
aI1002
aI835
aa(lp5
I709
aI1985
aI1021
aI1418
aI569
aI1388
aI609
aI1831
aI964
aI907
aI540
aI494
aI1124
aI72
aI782
aI1892
aI622
aI1638
aI484
aI1090
aI1574
aI1834
aI955
aI946
aI1515
aI697
aI1517
aI1225
aI601
aI1994
aI837
aI1529
aI1116
aI1937
aI1322
aI680
aI730
aI1967
aI764
aI1218
aI37
aI737
aI1061
aI1345
aI345
aI761
aI178
aI1944
aI1516
aI1825
aI1705
aI525
aI159
aI791
aI928
aI238
aI1169
aI1884
aI869
aI653
aI1052
aI529
aI689
aI138
aa(lp6
I507
aI659
aI795
aI589
aI37
aI1740
aI944
aI1414
aI1842
aI943
aI938
aI286
aI119
aI1942
aI1172
aI1918
aI518
aI1613
aI940
aI379
aI1243
aI763
aI1920
aI931
aI149
aI1290
aI46
aI1931
aI1149
aI621
aI902
aI1688
aI363
aI1084
aI561
aI658
aI1389
aI553
aI1592
aI179
aI1965
aI122
aI1730
aI1533
aI290
aI194
aI711
aI1038
aI536
aI677
aI601
aI1177
aI17
aI414
aI419
aI1820
aI1940
aI555
aI63
aI1840
aI1316
aI251
aI716
aI612
aa(lp7
I646
aI492
aI1780
aI155
aI1666
aI1441
aI1956
aI399
aI1897
aI969
aI1796
aI824
aI1128
aI188
aI95
aI360
aI1141
aI1297
aI841
aI403
aI1127
aI110
aI137
aI355
aI1073
aI41
aI539
aI652
aI947
aI426
aI1763
aI34
aI1565
aI432
aI648
aI58
aI721
aI1972
aI878
aI802
aI386
aI1901
aI1393
aI1405
aI881
aI289
aI932
aI692
aI1231
aI1413
aI1488
aI957
aI1793
aI1640
aI1743
aI484
aI874
aI685
aI1458
aI1631
aI1971
aI740
aI1203
aI1088
aa(lp8
I385
aI596
aI1211
aI774
aI482
aI1167
aI1431
aI1031
aI516
aI1233
aI67
aI1580
aI1854
aI865
aI386
aI1900
aI1561
aI942
aI878
aI1919
aI1463
aI1806
aI739
aI1543
aI902
aI245
aI790
aI1250
aI420
aI1688
aI1681
aI1968
aI1602
aI1528
aI949
aI1643
aI1423
aI820
aI1274
aI1491
aI574
aI1422
aI406
aI1
aI474
aI755
aI1181
aI1720
aI1801
aI1585
aI612
aI330
aI1391
aI1231
aI1420
aI1855
aI152
aI1160
aI1938
aI1106
aI1007
aI1046
aI1880
aI1173
aa(lp9
I812
aI1955
aI565
aI508
aI525
aI1219
aI1235
aI1774
aI104
aI937
aI1555
aI627
aI345
aI688
aI466
aI816
aI776
aI312
aI1397
aI1812
aI1299
aI1583
aI934
aI398
aI443
aI1706
aI169
aI1062
aI781
aI1117
aI512
aI624
aI301
aI1603
aI1066
aI1553
aI827
aI1756
aI775
aI1196
aI715
aI1069
aI987
aI1362
aI396
aI1089
aI1087
aI1092
aI1249
aI929
aI1748
aI689
aI637
aI1452
aI1334
aI324
aI1283
aI882
aI1882
aI126
aI1015
aI1618
aI35
aI738
aa(lp10
I1727
aI15
aI1772
aI1516
aI933
aI1784
aI676
aI738
aI1345
aI1960
aI325
aI1208
aI1157
aI437
aI724
aI1161
aI1233
aI1227
aI1632
aI1486
aI1509
aI466
aI1094
aI1995
aI10
aI277
aI391
aI939
aI976
aI328
aI113
aI1338
aI591
aI1363
aI396
aI306
aI524
aI870
aI1003
aI1703
aI1236
aI1809
aI525
aI1154
aI6
aI428
aI1829
aI1585
aI1950
aI1121
aI1375
aI102
aI461
aI1758
aI1904
aI386
aI1288
aI814
aI1004
aI669
aI1354
aI430
aI1096
aI1728
aa(lp11
I951
aI136
aI1307
aI502
aI969
aI1907
aI1717
aI1913
aI1875
aI980
aI811
aI511
aI176
aI545
aI1985
aI659
aI306
aI642
aI1905
aI1138
aI596
aI1159
aI189
aI1116
aI831
aI687
aI977
aI254
aI959
aI964
aI546
aI1293
aI1362
aI552
aI237
aI747
aI1192
aI28
aI1300
aI297
aI1904
aI411
aI1186
aI1705
aI1030
aI1950
aI1923
aI1995
aI225
aI1011
aI315
aI1521
aI1182
aI214
aI670
aI1467
aI632
aI645
aI79
aI1948
aI1886
aI556
aI1434
aI1654
aa(lp12
I266
aI1799
aI236
aI1184
aI298
aI139
aI1707
aI1346
aI1767
aI1929
aI1449
aI25
aI1402
aI238
aI245
aI1600
aI604
aI1806
aI1564
aI420
aI1777
aI7
aI540
aI1573
aI345
aI60
aI516
aI1091
aI1189
aI668
aI249
aI72
aI809
aI282
aI1078
aI1099
aI755
aI369
aI1903
aI1145
aI1691
aI1729
aI946
aI375
aI694
aI1526
aI1159
aI848
aI1708
aI5
aI136
aI1115
aI1988
aI979
aI768
aI1117
aI1455
aI596
aI46
aI1653
aI1331
aI877
aI1863
aI217
aa(lp13
I1852
aI483
aI1570
aI1321
aI1794
aI1543
aI1169
aI1593
aI1397
aI1107
aI1031
aI1811
aI66
aI1952
aI687
aI1961
aI1643
aI1648
aI1903
aI1837
aI1713
aI961
aI1359
aI117
aI140
aI565
aI1258
aI1151
aI400
aI978
aI308
aI269
aI246
aI182
aI1448
aI1232
aI1658
aI1188
aI124
aI450
aI541
aI1963
aI15
aI1512
aI1844
aI950
aI1061
aI373
aI1091
aI1281
aI1451
aI1829
aI1392
aI671
aI208
aI34
aI839
aI1484
aI1211
aI1921
aI1831
aI1616
aI825
aI1786
aa(lp14
I1333
aI1417
aI399
aI406
aI1672
aI633
aI1731
aI1675
aI1700
aI1253
aI669
aI1971
aI304
aI1474
aI817
aI1819
aI1258
aI1999
aI1330
aI752
aI1584
aI1831
aI1486
aI485
aI1520
aI1112
aI1688
aI659
aI1331
aI179
aI1871
aI966
aI206
aI442
aI854
aI1655
aI268
aI392
aI1774
aI1154
aI1845
aI311
aI1121
aI1974
aI1572
aI1764
aI1125
aI612
aI491
aI1867
aI1617
aI941
aI886
aI1523
aI1208
aI408
aI1184
aI1090
aI1212
aI1605
aI1027
aI1796
aI939
aI1883
aa(lp15
I824
aI1267
aI1724
aI69
aI1133
aI1129
aI345
aI686
aI1049
aI538
aI808
aI348
aI1301
aI1385
aI512
aI1260
aI1519
aI28
aI1166
aI256
aI741
aI578
aI1658
aI1822
aI506
aI342
aI1234
aI1402
aI408
aI1815
aI151
aI61
aI396
aI1253
aI1538
aI1933
aI1733
aI1895
aI390
aI1259
aI1493
aI956
aI1660
aI1464
aI350
aI1197
aI483
aI1584
aI527
aI1083
aI1422
aI575
aI1903
aI925
aI387
aI591
aI1124
aI563
aI776
aI1940
aI595
aI1758
aI1475
aI388
aa(lp16
I1818
aI98
aI24
aI1683
aI1016
aI974
aI682
aI310
aI684
aI1780
aI1667
aI1766
aI1860
aI150
aI518
aI1064
aI570
aI897
aI1682
aI413
aI312
aI1980
aI429
aI448
aI1477
aI1781
aI1792
aI1310
aI122
aI27
aI111
aI931
aI907
aI855
aI764
aI1821
aI1418
aI657
aI580
aI1513
aI909
aI1734
aI1861
aI496
aI1051
aI540
aI1882
aI226
aI349
aI1992
aI173
aI1754
aI1809
aI891
aI1158
aI1963
aI859
aI1805
aI842
aI360
aI1681
aI1366
aI531
aI480
aa(lp17
I1317
aI931
aI1009
aI1289
aI825
aI1564
aI1877
aI878
aI1917
aI1124
aI555
aI150
aI1084
aI720
aI1007
aI789
aI1879
aI1177
aI1363
aI1596
aI251
aI404
aI1970
aI1513
aI1448
aI461
aI1514
aI260
aI1905
aI1478
aI1549
aI1369
aI82
aI1816
aI1842
aI227
aI183
aI1846
aI1778
aI1681
aI1013
aI1943
aI160
aI908
aI879
aI1085
aI1058
aI1620
aI700
aI642
aI28
aI123
aI568
aI717
aI422
aI1955
aI933
aI740
aI632
aI442
aI858
aI1671
aI138
aI1142
aa(lp18
I1422
aI140
aI61
aI1515
aI1933
aI1409
aI775
aI1780
aI1533
aI182
aI1066
aI221
aI174
aI1927
aI1102
aI1345
aI1087
aI1644
aI574
aI209
aI1227
aI1234
aI1203
aI169
aI594
aI222
aI1897
aI1482
aI1297
aI626
aI926
aI1748
aI40
aI520
aI1338
aI353
aI207
aI916
aI1791
aI1462
aI1416
aI1123
aI1827
aI103
aI468
aI1606
aI1599
aI1567
aI266
aI1318
aI1472
aI1455
aI678
aI1564
aI1996
aI943
aI1003
aI965
aI1651
aI1628
aI1442
aI1321
aI208
aI1311
aa(lp19
I980
aI110
aI1004
aI1930
aI588
aI1572
aI851
aI806
aI1419
aI1504
aI1386
aI1403
aI1048
aI1593
aI712
aI1628
aI1507
aI343
aI569
aI277
aI1133
aI1875
aI259
aI1511
aI377
aI94
aI1288
aI1852
aI82
aI1480
aI1840
aI1710
aI323
aI99
aI1719
aI807
aI651
aI372
aI1312
aI1431
aI374
aI1168
aI973
aI1827
aI499
aI783
aI72
aI682
aI660
aI212
aI673
aI1370
aI1116
aI1849
aI1542
aI1678
aI1041
aI1598
aI945
aI393
aI1538
aI1610
aI1226
aI1015
aa(lp20
I216
aI1722
aI1529
aI1832
aI769
aI1011
aI1103
aI1828
aI1485
aI1567
aI1168
aI1871
aI1709
aI203
aI1501
aI1587
aI482
aI535
aI456
aI791
aI165
aI1007
aI274
aI1686
aI4
aI1066
aI1247
aI1574
aI1457
aI1670
aI1473
aI847
aI1806
aI45
aI171
aI1139
aI865
aI372
aI1015
aI1296
aI569
aI1988
aI1999
aI1504
aI304
aI1431
aI579
aI1973
aI839
aI852
aI864
aI416
aI992
aI1190
aI316
aI1901
aI1263
aI1490
aI906
aI1568
aI1244
aI1610
aI1008
aI1506
aa(lp21
I864
aI1290
aI445
aI943
aI463
aI1850
aI614
aI1338
aI194
aI283
aI78
aI1247
aI1508
aI1316
aI1453
aI1448
aI1173
aI1559
aI66
aI150
aI353
aI1720
aI1070
aI940
aI1418
aI202
aI701
aI204
aI593
aI705
aI201
aI1177
aI1988
aI1789
aI285
aI1467
aI993
aI1727
aI154
aI145
aI713
aI1578
aI732
aI1855
aI996
aI1970
aI1881
aI741
aI857
aI578
aI1283
aI1854
aI1393
aI1416
aI882
aI458
aI1736
aI846
aI1380
aI842
aI1340
aI1518
aI613
aI916
aa(lp22
I1099
aI1840
aI1427
aI1790
aI464
aI459
aI1872
aI1902
aI1224
aI432
aI102
aI204
aI810
aI873
aI1558
aI676
aI1711
aI641
aI860
aI706
aI8
aI530
aI1798
aI791
aI36
aI62
aI592
aI608
aI1882
aI57
aI601
aI381
aI638
aI172
aI236
aI1648
aI1219
aI1875
aI391
aI190
aI104
aI54
aI768
aI1115
aI357
aI1892
aI1799
aI1273
aI74
aI809
aI373
aI1530
aI1394
aI920
aI1036
aI206
aI1379
aI547
aI409
aI1477
aI1613
aI168
aI1181
aI874
aa(lp23
I277
aI1680
aI317
aI1062
aI1727
aI1345
aI130
aI121
aI28
aI917
aI1704
aI339
aI1361
aI122
aI1851
aI1287
aI629
aI999
aI1740
aI704
aI781
aI1601
aI11
aI403
aI1096
aI971
aI60
aI1387
aI1166
aI1041
aI1481
aI1318
aI25
aI1986
aI1580
aI517
aI725
aI196
aI398
aI1485
aI1470
aI491
aI900
aI1537
aI1264
aI1159
aI912
aI327
aI1839
aI1624
aI1517
aI0
aI1505
aI1443
aI274
aI161
aI340
aI365
aI923
aI1176
aI1282
aI1952
aI1290
aI289
aa(lp24
I1637
aI1429
aI882
aI957
aI235
aI643
aI1178
aI846
aI1174
aI1764
aI76
aI1008
aI1480
aI870
aI1562
aI344
aI1154
aI238
aI1512
aI462
aI1845
aI1601
aI526
aI490
aI657
aI1613
aI1062
aI1895
aI1090
aI1001
aI1956
aI620
aI1409
aI1543
aI1082
aI631
aI1578
aI622
aI1372
aI1259
aI1807
aI546
aI89
aI1567
aI1107
aI414
aI1386
aI1265
aI1444
aI666
aI107
aI1296
aI1939
aI484
aI347
aI608
aI1286
aI738
aI699
aI1143
aI7
aI1288
aI1553
aI1701
aa(lp25
I237
aI793
aI450
aI1580
aI1975
aI381
aI647
aI92
aI99
aI495
aI1607
aI1411
aI1094
aI1577
aI329
aI326
aI1516
aI1529
aI152
aI1083
aI914
aI12
aI302
aI1111
aI1353
aI664
aI308
aI1713
aI270
aI1050
aI1173
aI1423
aI1928
aI860
aI1668
aI1105
aI1909
aI15
aI1583
aI82
aI142
aI64
aI765
aI1011
aI1238
aI79
aI1703
aI1054
aI101
aI167
aI1643
aI1263
aI896
aI454
aI1953
aI1730
aI1
aI1847
aI1256
aI1879
aI1593
aI1378
aI1145
aI1628
aa(lp26
I1584
aI811
aI283
aI615
aI1037
aI782
aI1156
aI16
aI1489
aI1035
aI1704
aI293
aI161
aI1010
aI1844
aI252
aI1113
aI552
aI1865
aI1034
aI658
aI51
aI1925
aI705
aI383
aI1517
aI905
aI587
aI829
aI1321
aI1879
aI1676
aI1398
aI1048
aI1951
aI1560
aI1910
aI1466
aI1122
aI235
aI963
aI406
aI336
aI533
aI799
aI1999
aI831
aI89
aI614
aI714
aI427
aI1418
aI870
aI325
aI1289
aI347
aI541
aI1961
aI483
aI1381
aI1043
aI1941
aI1153
aI902
aa(lp27
I832
aI75
aI551
aI1329
aI683
aI1330
aI7
aI1069
aI1788
aI1723
aI326
aI415
aI1867
aI1617
aI554
aI403
aI284
aI1294
aI1671
aI747
aI749
aI1978
aI935
aI1311
aI977
aI735
aI1231
aI1004
aI1087
aI810
aI1362
aI1003
aI1992
aI992
aI433
aI234
aI1078
aI184
aI1304
aI630
aI1564
aI1480
aI1363
aI1084
aI904
aI1594
aI1601
aI580
aI1850
aI218
aI90
aI653
aI969
aI1425
aI456
aI347
aI72
aI1725
aI572
aI1969
aI884
aI4
aI1108
aI1047
aa(lp28
I385
aI340
aI1031
aI1582
aI1201
aI1876
aI1636
aI1174
aI1806
aI1894
aI707
aI295
aI1648
aI1797
aI1305
aI1667
aI1542
aI1141
aI1920
aI443
aI17
aI181
aI1608
aI1403
aI360
aI1658
aI144
aI167
aI830
aI1494
aI1025
aI1287
aI489
aI1604
aI745
aI1437
aI434
aI529
aI784
aI46
aI1199
aI1023
aI1301
aI791
aI1541
aI731
aI103
aI979
aI1776
aI1733
aI1531
aI1192
aI124
aI878
aI739
aI1332
aI1764
aI973
aI1596
aI1477
aI185
aI724
aI189
aI538
aa(lp29
I1842
aI1469
aI254
aI598
aI19
aI1845
aI716
aI172
aI385
aI605
aI515
aI1157
aI1022
aI1170
aI777
aI1882
aI1700
aI1496
aI879
aI126
aI1032
aI440
aI599
aI481
aI17
aI661
aI80
aI1620
aI159
aI704
aI959
aI1051
aI753
aI541
aI98
aI1520
aI1068
aI1379
aI674
aI1024
aI1816
aI1577
aI1232
aI957
aI1763
aI449
aI1920
aI1954
aI268
aI1773
aI302
aI1441
aI1482
aI58
aI235
aI1770
aI602
aI1334
aI1321
aI1021
aI1443
aI1629
aI1815
aI139
aa(lp30
I1361
aI1722
aI1714
aI881
aI1853
aI1900
aI811
aI1225
aI1696
aI1720
aI923
aI1650
aI402
aI1284
aI1098
aI1468
aI1906
aI1286
aI1103
aI377
aI1095
aI226
aI1446
aI497
aI775
aI1170
aI1275
aI1406
aI276
aI746
aI464
aI1881
aI1350
aI1048
aI967
aI227
aI128
aI1682
aI1902
aI864
aI1856
aI1324
aI687
aI1828
aI1705
aI1525
aI162
aI911
aI80
aI301
aI1699
aI1231
aI137
aI1678
aI1202
aI287
aI1806
aI189
aI109
aI1336
aI1433
aI439
aI865
aI195
aa(lp31
I1624
aI1496
aI983
aI1418
aI256
aI502
aI454
aI1525
aI1286
aI1579
aI1631
aI1543
aI1026
aI513
aI369
aI1383
aI140
aI541
aI65
aI30
aI840
aI1272
aI745
aI1965
aI940
aI305
aI1751
aI1968
aI72
aI612
aI879
aI149
aI1235
aI306
aI1767
aI521
aI1815
aI1322
aI1328
aI101
aI1278
aI422
aI605
aI1770
aI207
aI1160
aI1366
aI1876
aI472
aI548
aI831
aI179
aI33
aI1960
aI1701
aI1911
aI762
aI172
aI624
aI763
aI888
aI1531
aI950
aI1635
aa(lp32
I44
aI557
aI867
aI1710
aI1033
aI82
aI1176
aI1995
aI13
aI1583
aI1060
aI133
aI1318
aI340
aI1455
aI982
aI1241
aI1961
aI1048
aI501
aI556
aI1004
aI944
aI66
aI1044
aI863
aI1731
aI320
aI1911
aI823
aI398
aI1310
aI186
aI1040
aI1533
aI1454
aI1967
aI693
aI1797
aI1841
aI1916
aI1011
aI86
aI874
aI1951
aI1304
aI1564
aI1924
aI335
aI1858
aI495
aI581
aI1412
aI1592
aI1836
aI45
aI1037
aI62
aI1319
aI417
aI1591
aI131
aI1450
aI1618
aa(lp33
I824
aI1887
aI1511
aI758
aI363
aI300
aI1096
aI420
aI1917
aI1138
aI1846
aI406
aI1410
aI1399
aI1295
aI1981
aI1481
aI720
aI1071
aI519
aI1796
aI621
aI1555
aI1842
aI1247
aI200
aI327
aI1504
aI1877
aI254
aI411
aI642
aI812
aI308
aI1253
aI1791
aI1845
aI1354
aI1149
aI910
aI12
aI1817
aI10
aI1467
aI1039
aI155
aI317
aI120
aI1933
aI894
aI891
aI1072
aI1644
aI1613
aI1759
aI71
aI1322
aI1466
aI1581
aI380
aI1255
aI205
aI488
aI1854
aa(lp34
I1020
aI1078
aI1723
aI1418
aI946
aI1030
aI347
aI479
aI1274
aI188
aI1436
aI1054
aI1294
aI986
aI1724
aI220
aI1829
aI1647
aI1114
aI748
aI46
aI751
aI959
aI1866
aI1931
aI343
aI281
aI715
aI326
aI353
aI1008
aI1050
aI168
aI1708
aI401
aI1356
aI1192
aI1577
aI52
aI331
aI1100
aI267
aI1694
aI1478
aI981
aI1053
aI295
aI1142
aI1590
aI1533
aI1346
aI771
aI749
aI1073
aI1978
aI157
aI611
aI370
aI1470
aI1309
aI921
aI191
aI1559
aI894
aa(lp35
I462
aI390
aI1570
aI1631
aI1024
aI1234
aI306
aI1060
aI785
aI1789
aI938
aI893
aI1670
aI294
aI586
aI53
aI1433
aI636
aI180
aI1113
aI133
aI1296
aI966
aI1279
aI1722
aI609
aI1791
aI708
aI1821
aI1463
aI757
aI1121
aI934
aI978
aI177
aI1191
aI1984
aI219
aI342
aI1961
aI1865
aI632
aI1321
aI1972
aI1775
aI1275
aI380
aI735
aI874
aI1825
aI187
aI772
aI1695
aI178
aI1005
aI553
aI822
aI436
aI1671
aI1476
aI1598
aI1016
aI705
aI866
aa(lp36
I1325
aI1857
aI488
aI339
aI524
aI346
aI864
aI758
aI1216
aI1692
aI1955
aI1144
aI904
aI1757
aI518
aI174
aI1791
aI1432
aI943
aI1413
aI1199
aI1763
aI1467
aI222
aI1681
aI4
aI928
aI680
aI307
aI1775
aI410
aI166
aI1351
aI1644
aI989
aI272
aI350
aI1140
aI857
aI1194
aI1492
aI593
aI1887
aI973
aI742
aI1666
aI1458
aI1819
aI1659
aI1282
aI1023
aI1957
aI688
aI1156
aI1530
aI1923
aI910
aI1327
aI1961
aI19
aI1013
aI311
aI711
aI1555
aa(lp37
I1232
aI866
aI1461
aI1671
aI1002
aI759
aI821
aI217
aI1404
aI230
aI1979
aI1829
aI1528
aI1573
aI638
aI266
aI80
aI1537
aI1329
aI1171
aI194
aI1983
aI1345
aI1043
aI578
aI1503
aI1236
aI742
aI208
aI603
aI1518
aI303
aI701
aI1632
aI822
aI435
aI1390
aI792
aI1084
aI1740
aI1153
aI1298
aI77
aI1613
aI627
aI1950
aI1775
aI1924
aI322
aI498
aI305
aI1301
aI1009
aI838
aI1833
aI370
aI962
aI1281
aI156
aI754
aI559
aI516
aI1000
aI1789
aa(lp38
I1527
aI1902
aI1788
aI77
aI1061
aI1204
aI189
aI733
aI1550
aI601
aI753
aI1169
aI550
aI1616
aI1431
aI1866
aI867
aI1819
aI1852
aI217
aI1868
aI1811
aI999
aI1985
aI511
aI1777
aI1459
aI1957
aI100
aI364
aI270
aI1372
aI1844
aI680
aI1936
aI1341
aI648
aI580
aI108
aI494
aI1140
aI1151
aI1719
aI1675
aI1692
aI738
aI1370
aI1150
aI357
aI121
aI1242
aI381
aI1398
aI290
aI1759
aI1093
aI428
aI1324
aI90
aI219
aI1610
aI667
aI1681
aI1549
aa(lp39
I704
aI1633
aI1247
aI1411
aI1058
aI950
aI1705
aI1090
aI1615
aI985
aI776
aI759
aI1949
aI1675
aI1535
aI1897
aI1072
aI1688
aI85
aI1999
aI753
aI1684
aI358
aI552
aI1053
aI1274
aI1495
aI302
aI1790
aI248
aI1136
aI1819
aI356
aI1809
aI1588
aI52
aI1323
aI388
aI653
aI1597
aI139
aI752
aI1303
aI147
aI1252
aI228
aI760
aI1416
aI1623
aI1235
aI1592
aI130
aI1073
aI1532
aI628
aI1730
aI980
aI941
aI38
aI1961
aI751
aI824
aI372
aI55
aa(lp40
I352
aI674
aI712
aI1124
aI896
aI1191
aI790
aI293
aI534
aI1061
aI622
aI1361
aI450
aI817
aI1024
aI1888
aI1782
aI1751
aI788
aI935
aI1359
aI1354
aI1903
aI1429
aI1369
aI1255
aI452
aI831
aI424
aI1916
aI384
aI254
aI1813
aI342
aI1709
aI1789
aI416
aI1037
aI696
aI592
aI1739
aI1303
aI1163
aI1483
aI789
aI400
aI1884
aI21
aI989
aI107
aI606
aI1252
aI752
aI1579
aI651
aI532
aI1933
aI302
aI1819
aI1046
aI1447
aI371
aI1003
aI1868
aa(lp41
I1574
aI1692
aI280
aI788
aI1016
aI475
aI1369
aI715
aI1249
aI374
aI382
aI1929
aI1322
aI1116
aI1360
aI188
aI140
aI499
aI1845
aI1119
aI1918
aI648
aI511
aI23
aI1505
aI1588
aI903
aI640
aI48
aI695
aI608
aI1353
aI800
aI1129
aI623
aI1565
aI1619
aI64
aI1957
aI1781
aI1033
aI951
aI1163
aI1994
aI416
aI1479
aI470
aI894
aI775
aI163
aI311
aI1754
aI758
aI1853
aI999
aI1939
aI1716
aI1917
aI667
aI886
aI654
aI502
aI718
aI1198
aa(lp42
I1189
aI246
aI995
aI1273
aI905
aI251
aI1007
aI733
aI1925
aI1017
aI1800
aI403
aI104
aI999
aI1250
aI946
aI1330
aI1774
aI333
aI663
aI489
aI837
aI889
aI4
aI891
aI1444
aI348
aI761
aI1782
aI1546
aI473
aI608
aI1649
aI157
aI215
aI1951
aI1430
aI93
aI1640
aI69
aI340
aI1809
aI553
aI652
aI788
aI184
aI1340
aI1155
aI645
aI1695
aI1050
aI406
aI14
aI427
aI1646
aI1639
aI1043
aI1482
aI51
aI868
aI336
aI147
aI1184
aI1212
aa(lp43
I117
aI1232
aI162
aI343
aI1758
aI1995
aI803
aI110
aI815
aI1782
aI225
aI1933
aI1429
aI618
aI823
aI1611
aI1449
aI1762
aI837
aI828
aI1471
aI732
aI1797
aI1317
aI1707
aI629
aI1369
aI1386
aI1170
aI1082
aI769
aI1293
aI77
aI337
aI1631
aI1655
aI322
aI1564
aI1943
aI1801
aI528
aI19
aI999
aI775
aI286
aI1441
aI240
aI653
aI1552
aI1166
aI1145
aI452
aI1426
aI155
aI42
aI1771
aI138
aI1860
aI1695
aI1278
aI224
aI1483
aI1394
aI135
aa(lp44
I1855
aI380
aI1084
aI93
aI1520
aI156
aI589
aI1211
aI332
aI206
aI645
aI336
aI1945
aI222
aI1894
aI714
aI1669
aI1515
aI451
aI924
aI1054
aI1379
aI662
aI585
aI97
aI1466
aI798
aI1242
aI879
aI166
aI15
aI803
aI1653
aI613
aI1687
aI1363
aI1467
aI204
aI760
aI806
aI1970
aI1114
aI962
aI1618
aI1848
aI1351
aI1562
aI486
aI356
aI1867
aI277
aI1447
aI152
aI576
aI1812
aI163
aI1982
aI1524
aI1486
aI358
aI1795
aI1498
aI1485
aI141
aa(lp45
I74
aI1317
aI765
aI374
aI824
aI30
aI1865
aI1744
aI771
aI763
aI1792
aI154
aI1678
aI211
aI901
aI1687
aI601
aI613
aI907
aI1816
aI1529
aI870
aI1549
aI1304
aI1220
aI126
aI81
aI1057
aI1624
aI1515
aI570
aI271
aI496
aI1527
aI650
aI1941
aI114
aI1740
aI1108
aI316
aI289
aI487
aI1791
aI1611
aI467
aI64
aI1713
aI1725
aI296
aI1083
aI17
aI801
aI1192
aI616
aI1228
aI1982
aI456
aI328
aI1174
aI234
aI1566
aI518
aI32
aI673
aa(lp46
I812
aI332
aI873
aI699
aI1297
aI959
aI385
aI266
aI1367
aI774
aI107
aI1558
aI809
aI1583
aI485
aI993
aI1469
aI896
aI589
aI241
aI511
aI301
aI111
aI1706
aI1863
aI1847
aI1670
aI321
aI1042
aI1919
aI203
aI821
aI1941
aI708
aI78
aI395
aI351
aI1911
aI1857
aI583
aI1783
aI1547
aI375
aI1345
aI1727
aI141
aI1577
aI678
aI474
aI787
aI1745
aI504
aI461
aI1818
aI940
aI1059
aI240
aI1410
aI411
aI868
aI1023
aI1846
aI1995
aI1171
aa(lp47
I547
aI1440
aI1749
aI851
aI542
aI1474
aI81
aI659
aI273
aI1986
aI1010
aI1394
aI502
aI1627
aI1961
aI718
aI1124
aI1057
aI783
aI1113
aI1788
aI1559
aI1623
aI909
aI314
aI1304
aI24
aI77
aI1338
aI33
aI769
aI1823
aI38
aI983
aI188
aI304
aI947
aI230
aI32
aI1506
aI777
aI1226
aI1651
aI1608
aI1342
aI1294
aI207
aI1274
aI879
aI1121
aI122
aI535
aI797
aI1169
aI31
aI520
aI471
aI1085
aI636
aI340
aI284
aI352
aI329
aI1973
aa(lp48
I1077
aI69
aI1246
aI1179
aI1065
aI199
aI1618
aI1403
aI1775
aI1638
aI1264
aI693
aI773
aI1558
aI37
aI1573
aI1892
aI1999
aI148
aI1873
aI605
aI1977
aI1126
aI1140
aI260
aI985
aI859
aI1141
aI1524
aI215
aI1640
aI815
aI1816
aI1044
aI876
aI1672
aI325
aI1578
aI1546
aI1087
aI656
aI845
aI1535
aI1285
aI914
aI1822
aI1551
aI1547
aI1851
aI692
aI1991
aI1717
aI391
aI946
aI1271
aI775
aI964
aI226
aI513
aI1602
aI803
aI1367
aI748
aI324
aa(lp49
I937
aI1980
aI1863
aI879
aI1967
aI935
aI833
aI37
aI1151
aI1493
aI1551
aI64
aI163
aI1311
aI1272
aI1358
aI814
aI364
aI249
aI1811
aI29
aI1255
aI798
aI753
aI652
aI771
aI939
aI1511
aI54
aI1463
aI1582
aI1369
aI694
aI664
aI1892
aI346
aI651
aI1627
aI1076
aI448
aI860
aI742
aI1616
aI792
aI733
aI371
aI953
aI476
aI303
aI1122
aI1941
aI1875
aI1828
aI1188
aI1051
aI703
aI546
aI1271
aI612
aI335
aI590
aI1273
aI1304
aI594
aa(lp50
I287
aI1566
aI1380
aI1919
aI78
aI202
aI1750
aI616
aI341
aI1740
aI315
aI981
aI836
aI1311
aI1959
aI783
aI1952
aI905
aI1351
aI1109
aI825
aI944
aI1508
aI499
aI125
aI1442
aI539
aI1302
aI678
aI1033
aI619
aI1062
aI432
aI557
aI1296
aI1549
aI1154
aI321
aI737
aI886
aI1195
aI231
aI387
aI351
aI1772
aI524
aI304
aI1087
aI751
aI1393
aI459
aI525
aI167
aI418
aI873
aI510
aI1891
aI552
aI1496
aI1642
aI746
aI864
aI1328
aI1872
aa(lp51
I1726
aI747
aI1259
aI973
aI1031
aI1529
aI1098
aI568
aI1366
aI1253
aI1345
aI1201
aI1348
aI210
aI1533
aI1870
aI443
aI1657
aI1430
aI947
aI347
aI922
aI686
aI32
aI515
aI993
aI1155
aI985
aI432
aI1791
aI1006
aI101
aI257
aI1972
aI9
aI1752
aI651
aI1509
aI1504
aI1628
aI328
aI514
aI1240
aI772
aI792
aI1798
aI768
aI1197
aI1117
aI839
aI1037
aI48
aI511
aI608
aI1666
aI437
aI1632
aI1295
aI948
aI399
aI1667
aI1801
aI1174
aI1181
aa(lp52
I1978
aI1712
aI19
aI423
aI876
aI950
aI1675
aI912
aI834
aI519
aI157
aI1121
aI294
aI282
aI274
aI1872
aI1062
aI1944
aI1970
aI295
aI1321
aI489
aI472
aI1133
aI752
aI646
aI1561
aI822
aI1874
aI428
aI1466
aI929
aI633
aI1718
aI528
aI785
aI1162
aI1568
aI1039
aI440
aI6
aI839
aI855
aI1914
aI322
aI958
aI664
aI1616
aI1288
aI178
aI1073
aI829
aI328
aI1767
aI90
aI1681
aI1734
aI449
aI1733
aI195
aI686
aI781
aI568
aI1488
aa(lp53
I724
aI650
aI704
aI413
aI1571
aI1266
aI1509
aI1487
aI1350
aI1951
aI1704
aI33
aI830
aI921
aI1716
aI492
aI1
aI485
aI1992
aI802
aI545
aI1500
aI1702
aI452
aI636
aI896
aI1252
aI1737
aI433
aI257
aI105
aI1586
aI370
aI224
aI1318
aI656
aI1621
aI837
aI1934
aI1519
aI1960
aI229
aI736
aI617
aI1994
aI1074
aI1237
aI362
aI1549
aI1898
aI61
aI328
aI646
aI632
aI1372
aI1965
aI1417
aI166
aI148
aI931
aI1980
aI1068
aI1978
aI964
aa(lp54
I1714
aI1510
aI281
aI705
aI825
aI1823
aI1831
aI996
aI25
aI331
aI1503
aI1431
aI522
aI225
aI1599
aI1289
aI1064
aI879
aI877
aI1979
aI372
aI170
aI1252
aI508
aI1370
aI436
aI376
aI382
aI1953
aI451
aI23
aI1914
aI487
aI77
aI609
aI1076
aI546
aI1701
aI919
aI1928
aI943
aI646
aI1647
aI480
aI456
aI969
aI1062
aI67
aI962
aI1063
aI952
aI1007
aI1246
aI474
aI212
aI559
aI1615
aI466
aI736
aI702
aI1614
aI224
aI599
aI1423
aa(lp55
I1888
aI812
aI660
aI1975
aI539
aI907
aI647
aI1129
aI1025
aI563
aI1040
aI1803
aI2
aI147
aI1595
aI1464
aI1910
aI17
aI1452
aI339
aI195
aI186
aI1735
aI1633
aI1008
aI763
aI1631
aI87
aI257
aI167
aI1474
aI318
aI1250
aI571
aI1720
aI999
aI394
aI871
aI342
aI606
aI1349
aI1963
aI879
aI1150
aI808
aI235
aI1723
aI1371
aI1165
aI611
aI788
aI171
aI58
aI1846
aI408
aI374
aI1944
aI1848
aI1992
aI53
aI317
aI387
aI471
aI1463
aa(lp56
I934
aI122
aI524
aI954
aI7
aI1833
aI1662
aI317
aI154
aI1847
aI432
aI1394
aI925
aI109
aI1752
aI1806
aI195
aI1031
aI375
aI1291
aI589
aI1261
aI1786
aI874
aI308
aI1338
aI813
aI355
aI152
aI521
aI1761
aI1850
aI1069
aI46
aI693
aI1157
aI1821
aI1066
aI1414
aI821
aI878
aI852
aI469
aI736
aI692
aI818
aI1184
aI673
aI414
aI1660
aI1559
aI734
aI1437
aI1439
aI1203
aI1845
aI960
aI1526
aI3
aI1488
aI1190
aI783
aI257
aI86
aa(lp57
I1768
aI141
aI922
aI406
aI1448
aI1165
aI686
aI884
aI1270
aI1271
aI1599
aI278
aI1483
aI485
aI928
aI1909
aI1452
aI269
aI755
aI739
aI1315
aI1065
aI656
aI1230
aI1053
aI924
aI689
aI1372
aI1542
aI760
aI166
aI955
aI772
aI846
aI1669
aI1300
aI872
aI961
aI1757
aI498
aI437
aI957
aI998
aI378
aI514
aI10
aI912
aI110
aI442
aI1877
aI1090
aI818
aI1912
aI1518
aI965
aI664
aI1688
aI1432
aI1341
aI302
aI329
aI466
aI1465
aI1891
aa(lp58
I1558
aI282
aI1015
aI1669
aI1466
aI1069
aI1036
aI1276
aI84
aI1741
aI810
aI939
aI1421
aI1577
aI1946
aI1403
aI1341
aI1274
aI671
aI1639
aI444
aI987
aI70
aI542
aI1872
aI424
aI1929
aI54
aI688
aI1086
aI1153
aI1206
aI1547
aI1687
aI220
aI1702
aI1369
aI1110
aI1395
aI1876
aI610
aI877
aI993
aI998
aI3
aI1791
aI525
aI1977
aI626
aI968
aI1320
aI173
aI1762
aI1290
aI614
aI725
aI1947
aI1733
aI1108
aI32
aI1159
aI194
aI419
aI463
aa(lp59
I698
aI80
aI97
aI1359
aI1161
aI1290
aI1537
aI875
aI668
aI250
aI982
aI772
aI1592
aI360
aI448
aI130
aI433
aI588
aI855
aI1159
aI653
aI1682
aI340
aI1218
aI614
aI1081
aI150
aI401
aI1444
aI1491
aI1129
aI316
aI1281
aI1434
aI1220
aI1020
aI1449
aI52
aI1550
aI40
aI475
aI984
aI709
aI1547
aI147
aI1108
aI121
aI1485
aI1370
aI1812
aI877
aI1368
aI817
aI1714
aI980
aI907
aI1423
aI1274
aI1898
aI422
aI449
aI1463
aI883
aI1408
aa(lp60
I1623
aI96
aI179
aI575
aI309
aI1837
aI1930
aI644
aI400
aI1213
aI914
aI1812
aI47
aI1897
aI523
aI1631
aI1775
aI307
aI1280
aI12
aI696
aI28
aI1847
aI248
aI275
aI1956
aI298
aI1222
aI728
aI758
aI1314
aI1123
aI445
aI1955
aI1988
aI1472
aI57
aI1196
aI398
aI1553
aI1762
aI0
aI485
aI770
aI383
aI798
aI887
aI635
aI975
aI373
aI1485
aI842
aI996
aI965
aI1063
aI130
aI1139
aI279
aI1309
aI321
aI1641
aI274
aI1090
aI1871
aa(lp61
I761
aI726
aI1469
aI664
aI1895
aI328
aI1892
aI1236
aI1075
aI11
aI566
aI166
aI95
aI1565
aI1988
aI1156
aI1704
aI337
aI1780
aI1481
aI392
aI1696
aI164
aI1886
aI363
aI1728
aI13
aI1461
aI472
aI946
aI1547
aI940
aI1010
aI713
aI842
aI120
aI1761
aI762
aI895
aI1796
aI1432
aI269
aI747
aI1277
aI147
aI796
aI1164
aI130
aI1877
aI1231
aI540
aI8
aI538
aI1281
aI585
aI529
aI571
aI236
aI1661
aI667
aI1853
aI1250
aI44
aI1803
aa(lp62
I957
aI1695
aI1760
aI392
aI1702
aI828
aI434
aI437
aI624
aI1026
aI135
aI366
aI726
aI312
aI905
aI988
aI281
aI1516
aI1074
aI573
aI1714
aI888
aI943
aI1839
aI85
aI1724
aI630
aI386
aI1906
aI470
aI1988
aI1936
aI1808
aI1098
aI1992
aI177
aI75
aI660
aI431
aI538
aI1184
aI1949
aI1618
aI1038
aI136
aI1663
aI641
aI1259
aI510
aI1601
aI1435
aI1065
aI285
aI940
aI1709
aI628
aI1267
aI137
aI1990
aI1834
aI43
aI149
aI1253
aI132
aa(lp63
I594
aI934
aI213
aI726
aI1564
aI1527
aI1045
aI1973
aI837
aI1729
aI1374
aI794
aI1420
aI1212
aI1160
aI70
aI1489
aI666
aI519
aI1278
aI1043
aI1265
aI1947
aI887
aI419
aI1636
aI15
aI1545
aI715
aI895
aI1649
aI1335
aI1980
aI226
aI1062
aI657
aI967
aI356
aI916
aI1860
aI1800
aI1031
aI1890
aI134
aI780
aI208
aI735
aI177
aI709
aI1875
aI1956
aI863
aI297
aI1916
aI1292
aI394
aI1530
aI252
aI1296
aI1714
aI1982
aI1773
aI1214
aI1622
aa(lp64
I563
aI936
aI1401
aI1549
aI1766
aI334
aI1096
aI388
aI1638
aI106
aI716
aI23
aI770
aI1927
aI1878
aI447
aI312
aI1261
aI1202
aI1770
aI1536
aI62
aI1259
aI354
aI759
aI152
aI459
aI774
aI1421
aI1470
aI47
aI1733
aI1388
aI625
aI656
aI52
aI186
aI1771
aI1752
aI1342
aI636
aI1467
aI473
aI1674
aI723
aI1160
aI576
aI194
aI1050
aI581
aI1010
aI674
aI1967
aI835
aI737
aI1026
aI189
aI1765
aI437
aI717
aI853
aI653
aI1080
aI1219
aa.