(lp0
(lp1
I58
aI1462
aI1000
aI1596
aI1315
aI1819
aI8
aI1338
aI466
aI1754
aI473
aI80
aI104
aI1535
aI1899
aI1589
aa(lp2
I1472
aI983
aI1612
aI1495
aI372
aI1257
aI1076
aI1194
aI1089
aI874
aI868
aI383
aI623
aI1452
aI1855
aI1231
aa(lp3
I828
aI663
aI605
aI195
aI1964
aI173
aI1049
aI460
aI1966
aI577
aI1205
aI749
aI1948
aI724
aI95
aI1400
aa(lp4
I1134
aI643
aI416
aI1650
aI451
aI189
aI166
aI559
aI617
aI689
aI829
aI1263
aI1602
aI704
aI1874
aI714
aa(lp5
I1447
aI607
aI232
aI1708
aI1864
aI1822
aI954
aI1678
aI993
aI1469
aI874
aI1562
aI1757
aI1378
aI398
aI219
aa(lp6
I1079
aI313
aI1734
aI1307
aI1453
aI1374
aI1447
aI400
aI1007
aI851
aI1769
aI1104
aI1030
aI1045
aI1600
aI419
aa(lp7
I813
aI1240
aI478
aI789
aI1564
aI729
aI76
aI1138
aI142
aI247
aI875
aI893
aI1743
aI1488
aI207
aI539
aa(lp8
I1372
aI1890
aI762
aI1795
aI1872
aI463
aI164
aI1868
aI1114
aI1355
aI706
aI13
aI1223
aI715
aI1566
aI518
aa(lp9
I1122
aI291
aI1942
aI1616
aI1323
aI589
aI1209
aI1237
aI1709
aI1164
aI1553
aI1048
aI597
aI1348
aI1231
aI1678
aa(lp10
I991
aI1974
aI1608
aI1776
aI1672
aI1866
aI256
aI933
aI377
aI1966
aI869
aI1605
aI1054
aI865
aI28
aI1576
aa(lp11
I1953
aI406
aI351
aI62
aI759
aI216
aI1864
aI1825
aI1878
aI1324
aI10
aI1587
aI14
aI944
aI1478
aI359
aa(lp12
I1890
aI780
aI136
aI935
aI1295
aI1536
aI82
aI1285
aI1995
aI1142
aI838
aI394
aI464
aI513
aI1910
aI1644
aa(lp13
I474
aI406
aI1838
aI1364
aI1177
aI252
aI387
aI323
aI227
aI1273
aI1848
aI1641
aI1826
aI484
aI1585
aI178
aa(lp14
I1793
aI447
aI783
aI119
aI620
aI1568
aI1762
aI1182
aI878
aI869
aI1640
aI1040
aI73
aI203
aI1108
aI1018
aa(lp15
I1706
aI766
aI1878
aI1300
aI1299
aI1795
aI1595
aI1920
aI1610
aI957
aI362
aI647
aI1932
aI1628
aI1014
aI268
aa(lp16
I207
aI1036
aI656
aI256
aI1707
aI1496
aI1790
aI369
aI1347
aI1712
aI851
aI1456
aI1142
aI439
aI1139
aI909
aa.