(lp0
(lp1
I912
aI303
aI968
aI1764
aI1954
aI1051
aI1810
aI455
aI1083
aI1490
aI514
aI1922
aI766
aI247
aI110
aI1617
aI528
aI997
aI1785
aI526
aI417
aI43
aI1940
aI607
aI893
aI976
aI41
aI1126
aI61
aI590
aI1074
aI193
aa(lp2
I1847
aI1866
aI198
aI88
aI510
aI1572
aI1306
aI106
aI376
aI543
aI575
aI532
aI816
aI1016
aI1908
aI503
aI191
aI1975
aI702
aI1538
aI1366
aI973
aI1290
aI20
aI1532
aI1905
aI767
aI1514
aI868
aI1094
aI1212
aI1398
aa(lp3
I3
aI612
aI1889
aI656
aI1222
aI1462
aI366
aI1097
aI1678
aI855
aI1041
aI1887
aI1805
aI546
aI1325
aI1116
aI1883
aI1952
aI1899
aI1345
aI1917
aI443
aI347
aI886
aI168
aI327
aI986
aI1447
aI451
aI1869
aI1840
aI310
aa(lp4
I844
aI981
aI258
aI1401
aI980
aI665
aI106
aI66
aI175
aI1235
aI1111
aI620
aI82
aI265
aI1746
aI1249
aI465
aI1143
aI1648
aI165
aI1584
aI64
aI123
aI1110
aI1590
aI1016
aI1964
aI1177
aI1192
aI628
aI8
aI1518
aa(lp5
I1219
aI233
aI915
aI1288
aI1537
aI1186
aI1434
aI1249
aI1133
aI639
aI1327
aI806
aI1539
aI1033
aI831
aI1596
aI260
aI748
aI1789
aI1176
aI889
aI1423
aI1328
aI1011
aI1492
aI1022
aI1198
aI152
aI796
aI1135
aI1265
aI1579
aa(lp6
I1522
aI762
aI647
aI1234
aI1915
aI1537
aI1575
aI1589
aI1693
aI942
aI364
aI1552
aI1680
aI424
aI1167
aI1119
aI1823
aI967
aI412
aI1981
aI1358
aI1913
aI1847
aI867
aI865
aI1252
aI182
aI531
aI1781
aI312
aI891
aI1593
aa(lp7
I626
aI644
aI1411
aI1266
aI911
aI1209
aI580
aI1027
aI1525
aI1123
aI1762
aI1296
aI73
aI1893
aI263
aI1222
aI1393
aI704
aI1093
aI154
aI547
aI1390
aI978
aI861
aI1339
aI1588
aI1246
aI1872
aI918
aI1272
aI1539
aI615
aa(lp8
I1198
aI813
aI1323
aI1487
aI94
aI290
aI1947
aI1973
aI1356
aI1195
aI1889
aI1979
aI230
aI638
aI801
aI1529
aI728
aI1244
aI1070
aI205
aI425
aI605
aI1472
aI218
aI746
aI1774
aI1441
aI1516
aI698
aI1386
aI1609
aI1981
aa(lp9
I1472
aI1861
aI961
aI1429
aI1328
aI396
aI1931
aI67
aI435
aI86
aI1480
aI209
aI1369
aI488
aI999
aI667
aI1306
aI245
aI830
aI676
aI1988
aI918
aI1930
aI1920
aI711
aI1341
aI1731
aI1337
aI184
aI1014
aI1181
aI937
aa(lp10
I1657
aI697
aI1262
aI1597
aI476
aI830
aI849
aI1965
aI1592
aI183
aI1003
aI1488
aI734
aI816
aI1261
aI162
aI1085
aI448
aI767
aI1671
aI1024
aI324
aI510
aI900
aI843
aI867
aI1790
aI997
aI331
aI1854
aI157
aI1537
aa(lp11
I1902
aI1056
aI222
aI904
aI100
aI212
aI1507
aI959
aI1061
aI584
aI227
aI56
aI1149
aI241
aI1223
aI1860
aI1077
aI282
aI547
aI763
aI780
aI1778
aI435
aI614
aI57
aI1177
aI9
aI1830
aI1406
aI235
aI412
aI648
aa(lp12
I1093
aI496
aI1196
aI1712
aI577
aI222
aI1574
aI198
aI593
aI1160
aI88
aI497
aI693
aI1886
aI1962
aI418
aI1086
aI1985
aI910
aI50
aI519
aI16
aI1669
aI231
aI956
aI1188
aI1642
aI1467
aI817
aI1733
aI1690
aI203
aa(lp13
I1081
aI1760
aI1185
aI830
aI1460
aI1609
aI728
aI1715
aI801
aI1094
aI1141
aI592
aI426
aI749
aI94
aI436
aI1860
aI258
aI1615
aI851
aI1133
aI236
aI856
aI1680
aI1128
aI1502
aI1068
aI289
aI249
aI326
aI454
aI310
aa(lp14
I960
aI926
aI774
aI510
aI1261
aI1052
aI1021
aI518
aI1390
aI1416
aI682
aI56
aI1807
aI1668
aI1827
aI915
aI763
aI1027
aI1327
aI1901
aI666
aI1120
aI643
aI1762
aI1806
aI4
aI297
aI215
aI119
aI100
aI1857
aI810
aa(lp15
I1050
aI1503
aI1026
aI1204
aI1391
aI1387
aI960
aI1910
aI1895
aI1623
aI1966
aI1948
aI182
aI1246
aI1401
aI1760
aI1027
aI1932
aI997
aI1025
aI299
aI1210
aI1630
aI939
aI157
aI1627
aI1219
aI1704
aI948
aI991
aI54
aI326
aa(lp16
I352
aI1837
aI569
aI908
aI965
aI1199
aI510
aI443
aI360
aI250
aI1581
aI131
aI799
aI1469
aI609
aI1467
aI1019
aI450
aI986
aI832
aI913
aI1483
aI1168
aI1766
aI1147
aI797
aI1182
aI1665
aI440
aI615
aI1109
aI1537
aa(lp17
I1407
aI1964
aI654
aI657
aI519
aI138
aI1185
aI1858
aI1336
aI1130
aI625
aI1124
aI1956
aI1207
aI1581
aI1472
aI1714
aI229
aI915
aI635
aI715
aI1508
aI1199
aI449
aI80
aI79
aI364
aI396
aI417
aI42
aI254
aI58
aa(lp18
I1529
aI544
aI1372
aI1482
aI830
aI684
aI1845
aI127
aI1810
aI1408
aI397
aI1092
aI414
aI1461
aI768
aI134
aI1633
aI1445
aI982
aI622
aI1323
aI1873
aI225
aI1381
aI234
aI1045
aI1942
aI1377
aI1832
aI864
aI435
aI170
aa(lp19
I793
aI1282
aI1243
aI1052
aI1330
aI1189
aI754
aI1518
aI514
aI1308
aI82
aI766
aI991
aI1431
aI172
aI885
aI1687
aI1587
aI945
aI583
aI1179
aI980
aI1026
aI218
aI397
aI772
aI1185
aI150
aI1369
aI336
aI1302
aI20
aa(lp20
I1862
aI1259
aI1462
aI1677
aI1136
aI799
aI1160
aI1804
aI1253
aI633
aI789
aI222
aI1989
aI1536
aI1653
aI1353
aI364
aI1622
aI1927
aI1988
aI1459
aI1294
aI1857
aI355
aI1302
aI415
aI1890
aI99
aI538
aI1741
aI563
aI1526
aa(lp21
I369
aI1359
aI1991
aI96
aI476
aI1130
aI22
aI1433
aI1376
aI147
aI1410
aI1659
aI690
aI1900
aI1513
aI1147
aI1793
aI685
aI834
aI1151
aI582
aI1747
aI1072
aI1970
aI342
aI1328
aI1347
aI226
aI93
aI722
aI1077
aI1473
aa(lp22
I1844
aI1822
aI213
aI1880
aI1866
aI493
aI1764
aI1087
aI1807
aI1360
aI1453
aI840
aI711
aI842
aI956
aI1902
aI177
aI61
aI1067
aI1384
aI280
aI1086
aI467
aI960
aI1947
aI1054
aI1546
aI439
aI702
aI534
aI1366
aI1420
aa(lp23
I1271
aI1741
aI1847
aI1072
aI200
aI576
aI645
aI544
aI1044
aI1681
aI1495
aI155
aI1602
aI1869
aI1833
aI1169
aI1985
aI1520
aI1418
aI1800
aI933
aI305
aI909
aI85
aI117
aI761
aI250
aI1250
aI1589
aI2
aI797
aI775
aa(lp24
I914
aI668
aI274
aI1899
aI1769
aI886
aI793
aI661
aI755
aI1587
aI768
aI191
aI1798
aI784
aI890
aI434
aI1908
aI1180
aI1725
aI1976
aI689
aI37
aI1450
aI1959
aI1660
aI733
aI470
aI354
aI1191
aI442
aI118
aI1485
aa(lp25
I701
aI204
aI1826
aI1859
aI1485
aI386
aI416
aI469
aI711
aI202
aI685
aI1765
aI1962
aI825
aI1584
aI883
aI102
aI163
aI1318
aI161
aI1725
aI548
aI637
aI1488
aI1095
aI105
aI813
aI1421
aI381
aI653
aI1490
aI1793
aa(lp26
I1893
aI1441
aI1040
aI413
aI866
aI611
aI690
aI952
aI1263
aI1931
aI271
aI1227
aI381
aI737
aI1752
aI1672
aI460
aI1992
aI635
aI138
aI389
aI350
aI1555
aI1763
aI324
aI1655
aI684
aI420
aI1849
aI16
aI558
aI1119
aa(lp27
I1366
aI901
aI1850
aI1488
aI1154
aI71
aI1840
aI1641
aI20
aI1446
aI256
aI1352
aI567
aI1520
aI1989
aI785
aI402
aI1140
aI801
aI232
aI1615
aI1012
aI33
aI403
aI1299
aI1659
aI393
aI375
aI159
aI203
aI60
aI1423
aa(lp28
I256
aI1580
aI1558
aI729
aI1243
aI1380
aI518
aI190
aI733
aI228
aI1131
aI1477
aI590
aI1851
aI1151
aI1615
aI337
aI1368
aI1264
aI770
aI404
aI295
aI149
aI1825
aI1340
aI889
aI1671
aI1842
aI432
aI1621
aI563
aI165
aa(lp29
I1164
aI1996
aI735
aI321
aI143
aI1762
aI1058
aI768
aI376
aI935
aI189
aI1241
aI713
aI675
aI336
aI1747
aI880
aI672
aI1648
aI1017
aI287
aI1902
aI1981
aI1130
aI146
aI1667
aI1438
aI891
aI1367
aI1669
aI60
aI1092
aa(lp30
I474
aI1909
aI462
aI815
aI1667
aI1578
aI1910
aI1487
aI1075
aI1548
aI1900
aI342
aI1907
aI1
aI1614
aI1472
aI1474
aI203
aI145
aI1403
aI1894
aI825
aI1488
aI324
aI1850
aI1315
aI871
aI161
aI1347
aI677
aI1049
aI1639
aa(lp31
I1575
aI1470
aI1251
aI1918
aI1499
aI1602
aI368
aI1273
aI1191
aI274
aI1903
aI118
aI1496
aI64
aI1965
aI1850
aI487
aI1435
aI639
aI589
aI1508
aI106
aI1901
aI1211
aI1586
aI14
aI1708
aI1362
aI228
aI386
aI1944
aI323
aa(lp32
I885
aI397
aI143
aI531
aI758
aI772
aI123
aI1090
aI1631
aI634
aI1268
aI327
aI1404
aI358
aI1444
aI470
aI117
aI1538
aI317
aI1567
aI1347
aI1081
aI817
aI791
aI846
aI655
aI96
aI403
aI544
aI112
aI806
aI1647
aa.